; Function Attrs: nounwind uwtable
define ptr @l_Lean_IR_EmitC_emitFnBody(ptr noundef %0, ptr noundef %1, ptr noundef %2) local_unnamed_addr #0 {
  %4 = load ptr, ptr @l_Lean_IR_EmitC_emitTailCall___closed__4, align 8, !tbaa !4
  %5 = tail call ptr @lean_string_append(ptr noundef %2, ptr noundef %4) #5
  %6 = load ptr, ptr @l_Lean_IR_EmitC_emitLn___rarg___closed__1, align 8, !tbaa !4
  %7 = tail call ptr @lean_string_append(ptr noundef %5, ptr noundef %6) #5
  %8 = ptrtoint ptr %0 to i64
  %9 = and i64 %8, 1
  %.not = icmp eq i64 %9, 0
  br i1 %.not, label %10, label %lean_inc.exit36

10:                                               ; preds = %3
  %.val.i = load i32, ptr %0, align 4, !tbaa !8
  %11 = icmp sgt i32 %.val.i, 0
  br i1 %11, label %12, label %14, !prof !11

12:                                               ; preds = %10
  %13 = add nuw i32 %.val.i, 1
  store i32 %13, ptr %0, align 4, !tbaa !8
  br label %lean_inc.exit36

14:                                               ; preds = %10
  %.not.i43 = icmp eq i32 %.val.i, 0
  br i1 %.not.i43, label %lean_inc.exit36, label %15

15:                                               ; preds = %14
  tail call void @lean_inc_ref_cold(ptr noundef nonnull %0) #5
  br label %lean_inc.exit36

lean_inc.exit36:                                  ; preds = %15, %14, %12, %3
  %16 = tail call ptr @l_Lean_IR_EmitC_declareVars(ptr noundef %0, i8 noundef zeroext 0, ptr noundef %1, ptr noundef %7)
  %17 = getelementptr inbounds nuw i8, ptr %16, i64 8
  %18 = load ptr, ptr %17, align 8, !tbaa !4
  %19 = ptrtoint ptr %18 to i64
  %20 = and i64 %19, 1
  %.not55 = icmp eq i64 %20, 0
  br i1 %.not55, label %21, label %lean_dec.exit38

21:                                               ; preds = %lean_inc.exit36
  %.val.i44 = load i32, ptr %18, align 4, !tbaa !8
  %22 = icmp sgt i32 %.val.i44, 0
  br i1 %22, label %23, label %25, !prof !11

23:                                               ; preds = %21
  %24 = add nuw i32 %.val.i44, 1
  store i32 %24, ptr %18, align 4, !tbaa !8
  br label %27

25:                                               ; preds = %21
  %.not.i45 = icmp eq i32 %.val.i44, 0
  br i1 %.not.i45, label %lean_dec.exit38, label %26

26:                                               ; preds = %25
  tail call void @lean_inc_ref_cold(ptr noundef nonnull %18) #5
  %.pr = load i32, ptr %18, align 4, !tbaa !8
  br label %27

27:                                               ; preds = %26, %23
  %28 = phi i32 [ %.pr, %26 ], [ %24, %23 ]
  %29 = icmp sgt i32 %28, 1
  br i1 %29, label %30, label %32, !prof !17

30:                                               ; preds = %27
  %31 = add nsw i32 %28, -1
  store i32 %31, ptr %18, align 4, !tbaa !8
  br label %lean_dec.exit38

32:                                               ; preds = %27
  %.not.i = icmp eq i32 %28, 0
  br i1 %.not.i, label %lean_dec.exit38, label %33

33:                                               ; preds = %32
  tail call void @lean_dec_ref_cold(ptr noundef nonnull %18) #5
  br label %lean_dec.exit38

lean_dec.exit38:                                  ; preds = %lean_inc.exit36, %25, %33, %32, %30
  %34 = and i64 %19, 510
  %35 = icmp eq i64 %34, 0
  %36 = getelementptr inbounds nuw i8, ptr %16, i64 16
  %37 = load ptr, ptr %36, align 8, !tbaa !4
  %38 = ptrtoint ptr %37 to i64
  %39 = and i64 %38, 1
  %.not58 = icmp eq i64 %39, 0
  br i1 %35, label %40, label %56

40:                                               ; preds = %lean_dec.exit38
  br i1 %.not58, label %41, label %lean_inc.exit34

41:                                               ; preds = %40
  %.val.i47 = load i32, ptr %37, align 4, !tbaa !8
  %42 = icmp sgt i32 %.val.i47, 0
  br i1 %42, label %43, label %45, !prof !11

43:                                               ; preds = %41
  %44 = add nuw i32 %.val.i47, 1
  store i32 %44, ptr %37, align 4, !tbaa !8
  br label %lean_inc.exit34

45:                                               ; preds = %41
  %.not.i48 = icmp eq i32 %.val.i47, 0
  br i1 %.not.i48, label %lean_inc.exit34, label %46

46:                                               ; preds = %45
  tail call void @lean_inc_ref_cold(ptr noundef nonnull %37) #5
  br label %lean_inc.exit34

lean_inc.exit34:                                  ; preds = %46, %45, %43, %40
  %47 = ptrtoint ptr %16 to i64
  %48 = and i64 %47, 1
  %.not59 = icmp eq i64 %48, 0
  br i1 %.not59, label %49, label %lean_dec.exit37

49:                                               ; preds = %lean_inc.exit34
  %50 = load i32, ptr %16, align 4, !tbaa !8
  %51 = icmp sgt i32 %50, 1
  br i1 %51, label %52, label %54, !prof !11

52:                                               ; preds = %49
  %53 = add nsw i32 %50, -1
  store i32 %53, ptr %16, align 4, !tbaa !8
  br label %lean_dec.exit37

54:                                               ; preds = %49
  %.not.i39 = icmp eq i32 %50, 0
  br i1 %.not.i39, label %lean_dec.exit37, label %55

55:                                               ; preds = %54
  tail call void @lean_dec_ref_cold(ptr noundef nonnull %16) #5
  br label %lean_dec.exit37

56:                                               ; preds = %lean_dec.exit38
  br i1 %.not58, label %57, label %lean_inc.exit

57:                                               ; preds = %56
  %.val.i50 = load i32, ptr %37, align 4, !tbaa !8
  %58 = icmp sgt i32 %.val.i50, 0
  br i1 %58, label %59, label %61, !prof !11

59:                                               ; preds = %57
  %60 = add nuw i32 %.val.i50, 1
  store i32 %60, ptr %37, align 4, !tbaa !8
  br label %lean_inc.exit

61:                                               ; preds = %57
  %.not.i51 = icmp eq i32 %.val.i50, 0
  br i1 %.not.i51, label %lean_inc.exit, label %62

62:                                               ; preds = %61
  tail call void @lean_inc_ref_cold(ptr noundef nonnull %37) #5
  br label %lean_inc.exit

lean_inc.exit:                                    ; preds = %62, %61, %59, %56
  %63 = ptrtoint ptr %16 to i64
  %64 = and i64 %63, 1
  %.not57 = icmp eq i64 %64, 0
  br i1 %.not57, label %65, label %lean_dec.exit

65:                                               ; preds = %lean_inc.exit
  %66 = load i32, ptr %16, align 4, !tbaa !8
  %67 = icmp sgt i32 %66, 1
  br i1 %67, label %68, label %70, !prof !11

68:                                               ; preds = %65
  %69 = add nsw i32 %66, -1
  store i32 %69, ptr %16, align 4, !tbaa !8
  br label %lean_dec.exit

70:                                               ; preds = %65
  %.not.i41 = icmp eq i32 %66, 0
  br i1 %.not.i41, label %lean_dec.exit, label %71

71:                                               ; preds = %70
  tail call void @lean_dec_ref_cold(ptr noundef nonnull %16) #5
  br label %lean_dec.exit

lean_dec.exit:                                    ; preds = %71, %70, %68, %lean_inc.exit
  %72 = load ptr, ptr @l_Lean_IR_EmitC_emitFileHeader___closed__1, align 8, !tbaa !4
  %73 = tail call ptr @lean_string_append(ptr noundef %37, ptr noundef %72) #5
  %74 = tail call ptr @lean_string_append(ptr noundef %73, ptr noundef %6) #5
  br label %lean_dec.exit37

lean_dec.exit37:                                  ; preds = %lean_inc.exit34, %52, %54, %55, %lean_dec.exit
  %.sink = phi ptr [ %74, %lean_dec.exit ], [ %37, %55 ], [ %37, %54 ], [ %37, %52 ], [ %37, %lean_inc.exit34 ]
  %75 = tail call ptr @l_Lean_IR_EmitC_emitFnBody___lambda__1(ptr noundef %0, ptr nonnull poison, ptr noundef %1, ptr noundef %.sink)
  ret ptr %75
}